; Function Attrs: mustprogress nofree norecurse nosync nounwind willreturn memory(argmem: write) uwtable
define void @_ZN2cv4gapi3wip3gst23GStreamerPipelineFacadeC2Ev(ptr noundef nonnull align 8 dereferenceable(96) %0) unnamed_addr #3 align 2 personality ptr @__gxx_personality_v0 {
  %2 = getelementptr inbounds nuw i8, ptr %0, i64 16
  store ptr %2, ptr %0, align 8, !tbaa !3
  %3 = getelementptr inbounds nuw i8, ptr %0, i64 8
  store i64 0, ptr %3, align 8, !tbaa !9
  store i8 0, ptr %2, align 8, !tbaa !12
  %4 = getelementptr inbounds nuw i8, ptr %0, i64 32
  store ptr @_ZN2cv4gapi3wip3gstL19GStreamerPtrReleaseI11_GstElementEEvPT_, ptr %4, align 8, !tbaa !13
  %5 = getelementptr inbounds nuw i8, ptr %0, i64 40
  store ptr null, ptr %5, align 8, !tbaa !15
  %6 = getelementptr inbounds nuw i8, ptr %0, i64 48
  store i8 0, ptr %6, align 8, !tbaa !18
  %7 = getelementptr inbounds nuw i8, ptr %0, i64 49
  store i8 0, ptr %7, align 1, !tbaa !18
  %8 = getelementptr inbounds nuw i8, ptr %0, i64 56
  tail call void @llvm.memset.p0.i64(ptr noundef nonnull align 8 dereferenceable(40) %8, i8 0, i64 40, i1 false)
  ret void
}